/*
 * Intel ACPI Component Architecture
 * AML/ASL+ Disassembler version 20190329 (64-bit version)
 * Copyright (c) 2000 - 2019 Intel Corporation
 * 
 * Disassembly of uefi.dat, Tue Apr  2 02:45:24 2019
 *
 * ACPI Data Table [UEFI]
 *
 * Format: [HexOffset DecimalOffset ByteLength]  FieldName : FieldValue
 */

[000h 0000   4]                    Signature : "UEFI"    [UEFI Boot Optimization Table]
[004h 0004   4]                 Table Length : 00000042
[008h 0008   1]                     Revision : 01
[009h 0009   1]                     Checksum : 28
[00Ah 0010   6]                       Oem ID : "ALASKA"
[010h 0016   8]                 Oem Table ID : "A M I "
[018h 0024   4]                 Oem Revision : 00000000
[01Ch 0028   4]              Asl Compiler ID : ""
[020h 0032   4]        Asl Compiler Revision : 00000000

[024h 0036  16]              UUID Identifier : C68ED8E2-9DC6-4CBD-9D94-DB65ACC5C332
[034h 0052   2]                  Data Offset : 0036

Raw Table Data: Length 66 (0x42)

    0000: 55 45 46 49 42 00 00 00 01 28 41 4C 41 53 4B 41  // UEFIB....(ALASKA
    0010: 41 20 4D 20 49 20 00 00 00 00 00 00 00 00 00 00  // A M I ..........
    0020: 00 00 00 00 E2 D8 8E C6 C6 9D BD 4C 9D 94 DB 65  // ...........L...e
    0030: AC C5 C3 32 36 00 01 00 00 00 00 00 00 00 00 00  // ...26...........
    0040: 00 00                                            // ..
